(lp0
(S'elfflags'
p1
ccopy_reg
_reconstructor
p2
(cino.utils
SpaceList
p3
c__builtin__
list
p4
(lp5
S'-Os'
p6
aS'-Wl,--gc-sections'
p7
aS'-mmcu=atmega328p'
p8
atp9
Rp10
tp11
a(S'version.txt'
p12
S'/usr/share/arduino/lib/version.txt'
p13
tp14
a(S'used_libs'
p15
(lp16
S'/usr/share/arduino/hardware/arduino/avr/cores/arduino'
p17
atp18
a(S'cc'
p19
S'/usr/bin/avr-gcc'
p20
tp21
a(S'stty'
p22
S'/bin/stty'
p23
tp24
a(S'avrdude'
p25
S'/usr/share/arduino/hardware/tools/avrdude'
p26
tp27
a(S'avrdude.conf'
p28
S'/usr/share/arduino/hardware/tools/avrdude.conf'
p29
tp30
a(S'build_dir'
p31
S'.build/uno'
p32
tp33
a(S'arduino_core_dir'
p34
g17
tp35
a(S'boards.txt'
p36
S'/usr/share/arduino/hardware/arduino/avr/boards.txt'
p37
tp38
a(S'cxxflags'
p39
g2
(g3
g4
(lp40
S'-fno-exceptions'
p41
atp42
Rp43
tp44
a(S'arduino_variants_dir'
p45
S'/usr/share/arduino/hardware/arduino/avr/variants'
p46
tp47
a(S'deps'
p48
g2
(g3
g4
(lp49
S'.build/uno/src/dependencies.d'
p50
aS'.build/uno/arduino/dependencies.d'
p51
atp52
Rp53
tp54
a(S'ar'
p55
S'/usr/bin/avr-ar'
p56
tp57
a(S'names'
p58
(dp59
S'cpp'
p60
S'%s.cpp'
p61
sS'obj'
p62
S'%s.o'
p63
sS'lib'
p64
S'lib%s.a'
p65
sS'deps'
p66
S'%s.d'
p67
stp68
a(S'cflags'
p69
g2
(g3
g4
(lp70
g8
aS'-ffunction-sections'
p71
aS'-fdata-sections'
p72
aS'-g'
p73
ag6
aS'-w'
p74
aS'-DF_CPU=16000000L'
p75
aS'-DARDUINO=100'
p76
aS'-I/usr/share/arduino/hardware/arduino/avr/cores/arduino'
p77
aS'-I/usr/share/arduino/hardware/arduino/avr/variants/standard'
p78
aS'-I/usr/share/arduino/hardware/arduino/avr/cores/arduino'
p79
atp80
Rp81
tp82
a(S'arduino_libraries_dir'
p83
S'/usr/share/arduino/libraries'
p84
tp85
a(S'arduino_lib_version'
p86
g2
(cino.environment
Version
p87
c__builtin__
tuple
p88
(I1
I0
tp89
tp90
Rp91
tp92
a(S'objcopy'
p93
S'/usr/bin/avr-objcopy'
p94
tp95
a(S'board_models'
p96
cino.environment
BoardModels
p97
((lp98
(lp99
S'uno'
p100
a(dp101
S'build'
p102
(dp103
S'core'
p104
S'arduino'
p105
sS'mcu'
p106
S'atmega328p'
p107
sS'f_cpu'
p108
S'16000000L'
p109
sS'variant'
p110
S'standard'
p111
ssS'bootloader'
p112
(dp113
S'extended_fuses'
p114
S'0x05'
p115
sS'high_fuses'
p116
S'0xde'
p117
sS'low_fuses'
p118
S'0xff'
p119
sS'lock_bits'
p120
S'0x0F'
p121
sS'file'
p122
S'optiboot_atmega328.hex'
p123
sS'path'
p124
S'optiboot'
p125
sS'unlock_bits'
p126
S'0x3F'
p127
ssS'name'
p128
S'Arduino Uno'
p129
sS'upload'
p130
(dp131
S'speed'
p132
S'115200'
p133
sS'maximum_size'
p134
S'32256'
p135
sS'protocol'
p136
S'arduino'
p137
ssaa(lp138
S'atmega328'
p139
a(dp140
S'build'
p141
(dp142
S'core'
p143
S'arduino'
p144
sS'mcu'
p145
S'atmega328p'
p146
sS'f_cpu'
p147
S'16000000L'
p148
sS'variant'
p149
S'standard'
p150
ssS'bootloader'
p151
(dp152
S'extended_fuses'
p153
S'0x05'
p154
sS'high_fuses'
p155
S'0xDA'
p156
sS'low_fuses'
p157
S'0xFF'
p158
sS'lock_bits'
p159
S'0x0F'
p160
sS'file'
p161
S'ATmegaBOOT_168_atmega328.hex'
p162
sS'path'
p163
S'atmega'
p164
sS'unlock_bits'
p165
S'0x3F'
p166
ssS'name'
p167
S'Arduino Duemilanove w/ ATmega328'
p168
sS'upload'
p169
(dp170
S'speed'
p171
S'57600'
p172
sS'maximum_size'
p173
S'30720'
p174
sS'protocol'
p175
S'arduino'
p176
ssaa(lp177
S'diecimila'
p178
a(dp179
S'build'
p180
(dp181
S'core'
p182
S'arduino'
p183
sS'mcu'
p184
S'atmega168'
p185
sS'f_cpu'
p186
S'16000000L'
p187
sS'variant'
p188
S'standard'
p189
ssS'bootloader'
p190
(dp191
S'extended_fuses'
p192
S'0x00'
p193
sS'high_fuses'
p194
S'0xdd'
p195
sS'low_fuses'
p196
S'0xff'
p197
sS'lock_bits'
p198
S'0x0F'
p199
sS'file'
p200
S'ATmegaBOOT_168_diecimila.hex'
p201
sS'path'
p202
S'atmega'
p203
sS'unlock_bits'
p204
S'0x3F'
p205
ssS'name'
p206
S'Arduino Diecimila or Duemilanove w/ ATmega168'
p207
sS'upload'
p208
(dp209
S'speed'
p210
S'19200'
p211
sS'maximum_size'
p212
S'14336'
p213
sS'protocol'
p214
S'arduino'
p215
ssaa(lp216
S'nano328'
p217
a(dp218
S'build'
p219
(dp220
S'core'
p221
S'arduino'
p222
sS'mcu'
p223
S'atmega328p'
p224
sS'f_cpu'
p225
S'16000000L'
p226
sS'variant'
p227
S'eightanaloginputs'
p228
ssS'bootloader'
p229
(dp230
S'extended_fuses'
p231
S'0x05'
p232
sS'high_fuses'
p233
S'0xDA'
p234
sS'low_fuses'
p235
S'0xFF'
p236
sS'lock_bits'
p237
S'0x0F'
p238
sS'file'
p239
S'ATmegaBOOT_168_atmega328.hex'
p240
sS'path'
p241
S'atmega'
p242
sS'unlock_bits'
p243
S'0x3F'
p244
ssS'name'
p245
S'Arduino Nano w/ ATmega328'
p246
sS'upload'
p247
(dp248
S'speed'
p249
S'57600'
p250
sS'maximum_size'
p251
S'30720'
p252
sS'protocol'
p253
S'arduino'
p254
ssaa(lp255
S'nano'
p256
a(dp257
S'build'
p258
(dp259
S'core'
p260
S'arduino'
p261
sS'mcu'
p262
S'atmega168'
p263
sS'f_cpu'
p264
S'16000000L'
p265
sS'variant'
p266
S'eightanaloginputs'
p267
ssS'bootloader'
p268
(dp269
S'extended_fuses'
p270
S'0x00'
p271
sS'high_fuses'
p272
S'0xdd'
p273
sS'low_fuses'
p274
S'0xff'
p275
sS'lock_bits'
p276
S'0x0F'
p277
sS'file'
p278
S'ATmegaBOOT_168_diecimila.hex'
p279
sS'path'
p280
S'atmega'
p281
sS'unlock_bits'
p282
S'0x3F'
p283
ssS'name'
p284
S'Arduino Nano w/ ATmega168'
p285
sS'upload'
p286
(dp287
S'speed'
p288
S'19200'
p289
sS'maximum_size'
p290
S'14336'
p291
sS'protocol'
p292
S'arduino'
p293
ssaa(lp294
S'mega2560'
p295
a(dp296
S'build'
p297
(dp298
S'core'
p299
S'arduino'
p300
sS'mcu'
p301
S'atmega2560'
p302
sS'f_cpu'
p303
S'16000000L'
p304
sS'variant'
p305
S'mega'
p306
ssS'bootloader'
p307
(dp308
S'extended_fuses'
p309
S'0xFD'
p310
sS'high_fuses'
p311
S'0xD8'
p312
sS'low_fuses'
p313
S'0xFF'
p314
sS'lock_bits'
p315
S'0x0F'
p316
sS'file'
p317
S'stk500boot_v2_mega2560.hex'
p318
sS'path'
p319
S'stk500v2'
p320
sS'unlock_bits'
p321
S'0x3F'
p322
ssS'name'
p323
S'Arduino Mega 2560 or Mega ADK'
p324
sS'upload'
p325
(dp326
S'speed'
p327
S'115200'
p328
sS'maximum_size'
p329
S'258048'
p330
sS'protocol'
p331
S'stk500v2'
p332
ssaa(lp333
S'mega'
p334
a(dp335
S'build'
p336
(dp337
S'core'
p338
S'arduino'
p339
sS'mcu'
p340
S'atmega1280'
p341
sS'f_cpu'
p342
S'16000000L'
p343
sS'variant'
p344
S'mega'
p345
ssS'bootloader'
p346
(dp347
S'extended_fuses'
p348
S'0xF5'
p349
sS'high_fuses'
p350
S'0xDA'
p351
sS'low_fuses'
p352
S'0xFF'
p353
sS'lock_bits'
p354
S'0x0F'
p355
sS'file'
p356
S'ATmegaBOOT_168_atmega1280.hex'
p357
sS'path'
p358
S'atmega'
p359
sS'unlock_bits'
p360
S'0x3F'
p361
ssS'name'
p362
S'Arduino Mega (ATmega1280)'
p363
sS'upload'
p364
(dp365
S'speed'
p366
S'57600'
p367
sS'maximum_size'
p368
S'126976'
p369
sS'protocol'
p370
S'arduino'
p371
ssaa(lp372
S'leonardo'
p373
a(dp374
S'build'
p375
(dp376
S'core'
p377
S'arduino'
p378
sS'f_cpu'
p379
S'16000000L'
p380
sS'vid'
p381
S'0x2341'
p382
sS'pid'
p383
S'0x8036'
p384
sS'variant'
p385
S'leonardo'
p386
sS'mcu'
p387
S'atmega32u4'
p388
ssS'bootloader'
p389
(dp390
S'extended_fuses'
p391
S'0xcb'
p392
sS'high_fuses'
p393
S'0xd8'
p394
sS'low_fuses'
p395
S'0xff'
p396
sS'lock_bits'
p397
S'0x2F'
p398
sS'file'
p399
S'Caterina-Leonardo.hex'
p400
sS'path'
p401
S'caterina'
p402
sS'unlock_bits'
p403
S'0x3F'
p404
ssS'name'
p405
S'Arduino Leonardo'
p406
sS'upload'
p407
(dp408
S'speed'
p409
S'57600'
p410
sS'maximum_size'
p411
S'28672'
p412
sS'protocol'
p413
S'avr109'
p414
sS'disable_flushing'
p415
S'true'
p416
ssaa(lp417
S'mini328'
p418
a(dp419
S'build'
p420
(dp421
S'core'
p422
S'arduino'
p423
sS'mcu'
p424
S'atmega328p'
p425
sS'f_cpu'
p426
S'16000000L'
p427
sS'variant'
p428
S'eightanaloginputs'
p429
ssS'bootloader'
p430
(dp431
S'extended_fuses'
p432
S'0x05'
p433
sS'high_fuses'
p434
S'0xd8'
p435
sS'low_fuses'
p436
S'0xff'
p437
sS'lock_bits'
p438
S'0x0F'
p439
sS'file'
p440
S'optiboot_atmega328-Mini.hex'
p441
sS'path'
p442
S'optiboot'
p443
sS'unlock_bits'
p444
S'0x3F'
p445
ssS'name'
p446
S'Arduino Mini w/ ATmega328'
p447
sS'upload'
p448
(dp449
S'speed'
p450
S'115200'
p451
sS'maximum_size'
p452
S'28672'
p453
sS'protocol'
p454
S'arduino'
p455
ssaa(lp456
S'mini'
p457
a(dp458
S'build'
p459
(dp460
S'core'
p461
S'arduino'
p462
sS'mcu'
p463
S'atmega168'
p464
sS'f_cpu'
p465
S'16000000L'
p466
sS'variant'
p467
S'eightanaloginputs'
p468
ssS'bootloader'
p469
(dp470
S'extended_fuses'
p471
S'0x00'
p472
sS'high_fuses'
p473
S'0xdd'
p474
sS'low_fuses'
p475
S'0xff'
p476
sS'lock_bits'
p477
S'0x0F'
p478
sS'file'
p479
S'ATmegaBOOT_168_ng.hex'
p480
sS'path'
p481
S'atmega'
p482
sS'unlock_bits'
p483
S'0x3F'
p484
ssS'name'
p485
S'Arduino Mini w/ ATmega168'
p486
sS'upload'
p487
(dp488
S'speed'
p489
S'19200'
p490
sS'maximum_size'
p491
S'14336'
p492
sS'protocol'
p493
S'arduino'
p494
ssaa(lp495
S'ethernet'
p496
a(dp497
S'build'
p498
(dp499
S'f_cpu'
p500
S'16000000L'
p501
sS'mcu'
p502
S'atmega328p'
p503
sS'variant'
p504
S'standard'
p505
sS'core'
p506
S'arduino'
p507
ssS'bootloader'
p508
(dp509
S'extended_fuses'
p510
S'0x05'
p511
sS'high_fuses'
p512
S'0xde'
p513
sS'low_fuses'
p514
S'0xff'
p515
sS'lock_bits'
p516
S'0x0F'
p517
sS'file'
p518
S'optiboot_atmega328.hex'
p519
sS'path'
p520
S'optiboot'
p521
sS'unlock_bits'
p522
S'0x3F'
p523
ssS'name'
p524
S'Arduino Ethernet'
p525
sS'upload'
p526
(dp527
S'speed'
p528
S'115200'
p529
sS'maximum_size'
p530
S'32256'
p531
sS'protocol'
p532
S'arduino'
p533
ssaa(lp534
S'fio'
p535
a(dp536
S'build'
p537
(dp538
S'core'
p539
S'arduino'
p540
sS'mcu'
p541
S'atmega328p'
p542
sS'f_cpu'
p543
S'8000000L'
p544
sS'variant'
p545
S'eightanaloginputs'
p546
ssS'bootloader'
p547
(dp548
S'extended_fuses'
p549
S'0x05'
p550
sS'high_fuses'
p551
S'0xDA'
p552
sS'low_fuses'
p553
S'0xFF'
p554
sS'lock_bits'
p555
S'0x0F'
p556
sS'file'
p557
S'ATmegaBOOT_168_atmega328_pro_8MHz.hex'
p558
sS'path'
p559
S'arduino:atmega'
p560
sS'unlock_bits'
p561
S'0x3F'
p562
ssS'name'
p563
S'Arduino Fio'
p564
sS'upload'
p565
(dp566
S'speed'
p567
S'57600'
p568
sS'maximum_size'
p569
S'30720'
p570
sS'protocol'
p571
S'arduino'
p572
ssaa(lp573
S'bt328'
p574
a(dp575
S'build'
p576
(dp577
S'core'
p578
S'arduino'
p579
sS'mcu'
p580
S'atmega328p'
p581
sS'f_cpu'
p582
S'16000000L'
p583
sS'variant'
p584
S'eightanaloginputs'
p585
ssS'bootloader'
p586
(dp587
S'extended_fuses'
p588
S'0x05'
p589
sS'high_fuses'
p590
S'0xd8'
p591
sS'low_fuses'
p592
S'0xff'
p593
sS'lock_bits'
p594
S'0x0F'
p595
sS'file'
p596
S'ATmegaBOOT_168_atmega328_bt.hex'
p597
sS'path'
p598
S'bt'
p599
sS'unlock_bits'
p600
S'0x3F'
p601
ssS'name'
p602
S'Arduino BT w/ ATmega328'
p603
sS'upload'
p604
(dp605
S'speed'
p606
S'19200'
p607
sS'maximum_size'
p608
S'28672'
p609
sS'protocol'
p610
S'arduino'
p611
sS'disable_flushing'
p612
S'true'
p613
ssaa(lp614
S'bt'
p615
a(dp616
S'build'
p617
(dp618
S'core'
p619
S'arduino'
p620
sS'mcu'
p621
S'atmega168'
p622
sS'f_cpu'
p623
S'16000000L'
p624
sS'variant'
p625
S'eightanaloginputs'
p626
ssS'bootloader'
p627
(dp628
S'extended_fuses'
p629
S'0x00'
p630
sS'high_fuses'
p631
S'0xdd'
p632
sS'low_fuses'
p633
S'0xff'
p634
sS'lock_bits'
p635
S'0x0F'
p636
sS'file'
p637
S'ATmegaBOOT_168.hex'
p638
sS'path'
p639
S'bt'
p640
sS'unlock_bits'
p641
S'0x3F'
p642
ssS'name'
p643
S'Arduino BT w/ ATmega168'
p644
sS'upload'
p645
(dp646
S'speed'
p647
S'19200'
p648
sS'maximum_size'
p649
S'14336'
p650
sS'protocol'
p651
S'arduino'
p652
sS'disable_flushing'
p653
S'true'
p654
ssaa(lp655
S'lilypad328'
p656
a(dp657
S'build'
p658
(dp659
S'core'
p660
S'arduino'
p661
sS'mcu'
p662
S'atmega328p'
p663
sS'f_cpu'
p664
S'8000000L'
p665
sS'variant'
p666
S'standard'
p667
ssS'bootloader'
p668
(dp669
S'extended_fuses'
p670
S'0x05'
p671
sS'high_fuses'
p672
S'0xDA'
p673
sS'low_fuses'
p674
S'0xFF'
p675
sS'lock_bits'
p676
S'0x0F'
p677
sS'file'
p678
S'ATmegaBOOT_168_atmega328_pro_8MHz.hex'
p679
sS'path'
p680
S'atmega'
p681
sS'unlock_bits'
p682
S'0x3F'
p683
ssS'name'
p684
S'LilyPad Arduino w/ ATmega328'
p685
sS'upload'
p686
(dp687
S'speed'
p688
S'57600'
p689
sS'maximum_size'
p690
S'30720'
p691
sS'protocol'
p692
S'arduino'
p693
ssaa(lp694
S'lilypad'
p695
a(dp696
S'build'
p697
(dp698
S'core'
p699
S'arduino'
p700
sS'mcu'
p701
S'atmega168'
p702
sS'f_cpu'
p703
S'8000000L'
p704
sS'variant'
p705
S'standard'
p706
ssS'bootloader'
p707
(dp708
S'extended_fuses'
p709
S'0x00'
p710
sS'high_fuses'
p711
S'0xdd'
p712
sS'low_fuses'
p713
S'0xe2'
p714
sS'lock_bits'
p715
S'0x0F'
p716
sS'file'
p717
S'LilyPadBOOT_168.hex'
p718
sS'path'
p719
S'lilypad'
p720
sS'unlock_bits'
p721
S'0x3F'
p722
ssS'name'
p723
S'LilyPad Arduino w/ ATmega168'
p724
sS'upload'
p725
(dp726
S'speed'
p727
S'19200'
p728
sS'maximum_size'
p729
S'14336'
p730
sS'protocol'
p731
S'arduino'
p732
ssaa(lp733
S'pro5v328'
p734
a(dp735
S'build'
p736
(dp737
S'core'
p738
S'arduino'
p739
sS'mcu'
p740
S'atmega328p'
p741
sS'f_cpu'
p742
S'16000000L'
p743
sS'variant'
p744
S'standard'
p745
ssS'bootloader'
p746
(dp747
S'extended_fuses'
p748
S'0x05'
p749
sS'high_fuses'
p750
S'0xDA'
p751
sS'low_fuses'
p752
S'0xFF'
p753
sS'lock_bits'
p754
S'0x0F'
p755
sS'file'
p756
S'ATmegaBOOT_168_atmega328.hex'
p757
sS'path'
p758
S'atmega'
p759
sS'unlock_bits'
p760
S'0x3F'
p761
ssS'name'
p762
S'Arduino Pro or Pro Mini (5V, 16 MHz) w/ ATmega328'
p763
sS'upload'
p764
(dp765
S'speed'
p766
S'57600'
p767
sS'maximum_size'
p768
S'30720'
p769
sS'protocol'
p770
S'arduino'
p771
ssaa(lp772
S'pro5v'
p773
a(dp774
S'build'
p775
(dp776
S'core'
p777
S'arduino'
p778
sS'mcu'
p779
S'atmega168'
p780
sS'f_cpu'
p781
S'16000000L'
p782
sS'variant'
p783
S'standard'
p784
ssS'bootloader'
p785
(dp786
S'extended_fuses'
p787
S'0x00'
p788
sS'high_fuses'
p789
S'0xdd'
p790
sS'low_fuses'
p791
S'0xff'
p792
sS'lock_bits'
p793
S'0x0F'
p794
sS'file'
p795
S'ATmegaBOOT_168_diecimila.hex'
p796
sS'path'
p797
S'atmega'
p798
sS'unlock_bits'
p799
S'0x3F'
p800
ssS'name'
p801
S'Arduino Pro or Pro Mini (5V, 16 MHz) w/ ATmega168'
p802
sS'upload'
p803
(dp804
S'speed'
p805
S'19200'
p806
sS'maximum_size'
p807
S'14336'
p808
sS'protocol'
p809
S'arduino'
p810
ssaa(lp811
S'pro328'
p812
a(dp813
S'build'
p814
(dp815
S'core'
p816
S'arduino'
p817
sS'mcu'
p818
S'atmega328p'
p819
sS'f_cpu'
p820
S'8000000L'
p821
sS'variant'
p822
S'standard'
p823
ssS'bootloader'
p824
(dp825
S'extended_fuses'
p826
S'0x05'
p827
sS'high_fuses'
p828
S'0xDA'
p829
sS'low_fuses'
p830
S'0xFF'
p831
sS'lock_bits'
p832
S'0x0F'
p833
sS'file'
p834
S'ATmegaBOOT_168_atmega328_pro_8MHz.hex'
p835
sS'path'
p836
S'atmega'
p837
sS'unlock_bits'
p838
S'0x3F'
p839
ssS'name'
p840
S'Arduino Pro or Pro Mini (3.3V, 8 MHz) w/ ATmega328'
p841
sS'upload'
p842
(dp843
S'speed'
p844
S'57600'
p845
sS'maximum_size'
p846
S'30720'
p847
sS'protocol'
p848
S'arduino'
p849
ssaa(lp850
S'pro'
p851
a(dp852
S'build'
p853
(dp854
S'core'
p855
S'arduino'
p856
sS'mcu'
p857
S'atmega168'
p858
sS'f_cpu'
p859
S'8000000L'
p860
sS'variant'
p861
S'standard'
p862
ssS'bootloader'
p863
(dp864
S'extended_fuses'
p865
S'0x00'
p866
sS'high_fuses'
p867
S'0xdd'
p868
sS'low_fuses'
p869
S'0xc6'
p870
sS'lock_bits'
p871
S'0x0F'
p872
sS'file'
p873
S'ATmegaBOOT_168_pro_8MHz.hex'
p874
sS'path'
p875
S'atmega'
p876
sS'unlock_bits'
p877
S'0x3F'
p878
ssS'name'
p879
S'Arduino Pro or Pro Mini (3.3V, 8 MHz) w/ ATmega168'
p880
sS'upload'
p881
(dp882
S'speed'
p883
S'19200'
p884
sS'maximum_size'
p885
S'14336'
p886
sS'protocol'
p887
S'arduino'
p888
ssaa(lp889
S'atmega168'
p890
a(dp891
S'build'
p892
(dp893
S'core'
p894
S'arduino'
p895
sS'mcu'
p896
S'atmega168'
p897
sS'f_cpu'
p898
S'16000000L'
p899
sS'variant'
p900
S'standard'
p901
ssS'bootloader'
p902
(dp903
S'extended_fuses'
p904
S'0x00'
p905
sS'high_fuses'
p906
S'0xdd'
p907
sS'low_fuses'
p908
S'0xff'
p909
sS'lock_bits'
p910
S'0x0F'
p911
sS'file'
p912
S'ATmegaBOOT_168_ng.hex'
p913
sS'path'
p914
S'atmega'
p915
sS'unlock_bits'
p916
S'0x3F'
p917
ssS'name'
p918
S'Arduino NG or older w/ ATmega168'
p919
sS'upload'
p920
(dp921
S'speed'
p922
S'19200'
p923
sS'maximum_size'
p924
S'14336'
p925
sS'protocol'
p926
S'arduino'
p927
ssaa(lp928
S'atmega8'
p929
a(dp930
S'build'
p931
(dp932
S'core'
p933
S'arduino'
p934
sS'mcu'
p935
S'atmega8'
p936
sS'f_cpu'
p937
S'16000000L'
p938
sS'variant'
p939
S'standard'
p940
ssS'bootloader'
p941
(dp942
S'high_fuses'
p943
S'0xca'
p944
sS'low_fuses'
p945
S'0xdf'
p946
sS'lock_bits'
p947
S'0x0F'
p948
sS'file'
p949
S'ATmegaBOOT.hex'
p950
sS'path'
p951
S'atmega8'
p952
sS'unlock_bits'
p953
S'0x3F'
p954
ssS'name'
p955
S'Arduino NG or older w/ ATmega8'
p956
sS'upload'
p957
(dp958
S'speed'
p959
S'19200'
p960
sS'maximum_size'
p961
S'7168'
p962
sS'protocol'
p963
S'arduino'
p964
ssaatp965
Rp966
(dp967
S'default'
p968
S'uno'
p969
sbtp970
a(S'cxx'
p971
S'/usr/bin/avr-g++'
p972
tp973
a.