(lp0
(S'elfflags'
p1
ccopy_reg
_reconstructor
p2
(cino.utils
SpaceList
p3
c__builtin__
list
p4
(lp5
S'-Os'
p6
aS'-Wl,--gc-sections'
p7
aS'-mmcu=atmega328p'
p8
atp9
Rp10
tp11
a(S'version.txt'
p12
S'/usr/share/arduino/lib/version.txt'
p13
tp14
a(S'used_libs'
p15
(lp16
S'/usr/share/arduino/hardware/arduino/avr/cores/arduino'
p17
atp18
a(S'cc'
p19
S'/usr/bin/avr-gcc'
p20
tp21
a(S'stty'
p22
S'/bin/stty'
p23
tp24
a(S'cflags'
p25
g2
(g3
g4
(lp26
g8
aS'-ffunction-sections'
p27
aS'-fdata-sections'
p28
aS'-g'
p29
ag6
aS'-w'
p30
aS'-DF_CPU=16000000L'
p31
aS'-DARDUINO=100'
p32
aS'-I/usr/share/arduino/hardware/arduino/avr/cores/arduino'
p33
aS'-I/usr/share/arduino/hardware/arduino/avr/variants/standard'
p34
aS'-I/usr/share/arduino/hardware/arduino/avr/cores/arduino'
p35
atp36
Rp37
tp38
a(S'avrdude.conf'
p39
S'/usr/share/arduino/hardware/tools/avrdude.conf'
p40
tp41
a(S'build_dir'
p42
S'.build/uno'
p43
tp44
a(S'arduino_core_dir'
p45
g17
tp46
a(S'boards.txt'
p47
S'/usr/share/arduino/hardware/arduino/avr/boards.txt'
p48
tp49
a(S'cxxflags'
p50
g2
(g3
g4
(lp51
S'-fno-exceptions'
p52
atp53
Rp54
tp55
a(S'arduino_variants_dir'
p56
S'/usr/share/arduino/hardware/arduino/avr/variants'
p57
tp58
a(S'avrdude'
p59
S'/usr/share/arduino/hardware/tools/avrdude'
p60
tp61
a(S'ar'
p62
S'/usr/bin/avr-ar'
p63
tp64
a(S'names'
p65
(dp66
S'cpp'
p67
S'%s.cpp'
p68
sS'obj'
p69
S'%s.o'
p70
sS'lib'
p71
S'lib%s.a'
p72
sS'deps'
p73
S'%s.d'
p74
stp75
a(g73
g2
(g3
g4
(lp76
S'.build/uno/src/dependencies.d'
p77
aS'.build/uno/arduino/dependencies.d'
p78
atp79
Rp80
tp81
a(S'arduino_libraries_dir'
p82
S'/usr/share/arduino/libraries'
p83
tp84
a(S'arduino_lib_version'
p85
g2
(cino.environment
Version
p86
c__builtin__
tuple
p87
(I1
I0
tp88
tp89
Rp90
tp91
a(S'objcopy'
p92
S'/usr/bin/avr-objcopy'
p93
tp94
a(S'board_models'
p95
cino.environment
BoardModels
p96
((lp97
(lp98
S'uno'
p99
a(dp100
S'build'
p101
(dp102
S'core'
p103
S'arduino'
p104
sS'mcu'
p105
S'atmega328p'
p106
sS'f_cpu'
p107
S'16000000L'
p108
sS'variant'
p109
S'standard'
p110
ssS'bootloader'
p111
(dp112
S'extended_fuses'
p113
S'0x05'
p114
sS'high_fuses'
p115
S'0xde'
p116
sS'low_fuses'
p117
S'0xff'
p118
sS'lock_bits'
p119
S'0x0F'
p120
sS'file'
p121
S'optiboot_atmega328.hex'
p122
sS'path'
p123
S'optiboot'
p124
sS'unlock_bits'
p125
S'0x3F'
p126
ssS'name'
p127
S'Arduino Uno'
p128
sS'upload'
p129
(dp130
S'speed'
p131
S'115200'
p132
sS'maximum_size'
p133
S'32256'
p134
sS'protocol'
p135
S'arduino'
p136
ssaa(lp137
S'atmega328'
p138
a(dp139
S'build'
p140
(dp141
S'core'
p142
S'arduino'
p143
sS'mcu'
p144
S'atmega328p'
p145
sS'f_cpu'
p146
S'16000000L'
p147
sS'variant'
p148
S'standard'
p149
ssS'bootloader'
p150
(dp151
S'extended_fuses'
p152
S'0x05'
p153
sS'high_fuses'
p154
S'0xDA'
p155
sS'low_fuses'
p156
S'0xFF'
p157
sS'lock_bits'
p158
S'0x0F'
p159
sS'file'
p160
S'ATmegaBOOT_168_atmega328.hex'
p161
sS'path'
p162
S'atmega'
p163
sS'unlock_bits'
p164
S'0x3F'
p165
ssS'name'
p166
S'Arduino Duemilanove w/ ATmega328'
p167
sS'upload'
p168
(dp169
S'speed'
p170
S'57600'
p171
sS'maximum_size'
p172
S'30720'
p173
sS'protocol'
p174
S'arduino'
p175
ssaa(lp176
S'diecimila'
p177
a(dp178
S'build'
p179
(dp180
S'core'
p181
S'arduino'
p182
sS'mcu'
p183
S'atmega168'
p184
sS'f_cpu'
p185
S'16000000L'
p186
sS'variant'
p187
S'standard'
p188
ssS'bootloader'
p189
(dp190
S'extended_fuses'
p191
S'0x00'
p192
sS'high_fuses'
p193
S'0xdd'
p194
sS'low_fuses'
p195
S'0xff'
p196
sS'lock_bits'
p197
S'0x0F'
p198
sS'file'
p199
S'ATmegaBOOT_168_diecimila.hex'
p200
sS'path'
p201
S'atmega'
p202
sS'unlock_bits'
p203
S'0x3F'
p204
ssS'name'
p205
S'Arduino Diecimila or Duemilanove w/ ATmega168'
p206
sS'upload'
p207
(dp208
S'speed'
p209
S'19200'
p210
sS'maximum_size'
p211
S'14336'
p212
sS'protocol'
p213
S'arduino'
p214
ssaa(lp215
S'nano328'
p216
a(dp217
S'build'
p218
(dp219
S'core'
p220
S'arduino'
p221
sS'mcu'
p222
S'atmega328p'
p223
sS'f_cpu'
p224
S'16000000L'
p225
sS'variant'
p226
S'eightanaloginputs'
p227
ssS'bootloader'
p228
(dp229
S'extended_fuses'
p230
S'0x05'
p231
sS'high_fuses'
p232
S'0xDA'
p233
sS'low_fuses'
p234
S'0xFF'
p235
sS'lock_bits'
p236
S'0x0F'
p237
sS'file'
p238
S'ATmegaBOOT_168_atmega328.hex'
p239
sS'path'
p240
S'atmega'
p241
sS'unlock_bits'
p242
S'0x3F'
p243
ssS'name'
p244
S'Arduino Nano w/ ATmega328'
p245
sS'upload'
p246
(dp247
S'speed'
p248
S'57600'
p249
sS'maximum_size'
p250
S'30720'
p251
sS'protocol'
p252
S'arduino'
p253
ssaa(lp254
S'nano'
p255
a(dp256
S'build'
p257
(dp258
S'core'
p259
S'arduino'
p260
sS'mcu'
p261
S'atmega168'
p262
sS'f_cpu'
p263
S'16000000L'
p264
sS'variant'
p265
S'eightanaloginputs'
p266
ssS'bootloader'
p267
(dp268
S'extended_fuses'
p269
S'0x00'
p270
sS'high_fuses'
p271
S'0xdd'
p272
sS'low_fuses'
p273
S'0xff'
p274
sS'lock_bits'
p275
S'0x0F'
p276
sS'file'
p277
S'ATmegaBOOT_168_diecimila.hex'
p278
sS'path'
p279
S'atmega'
p280
sS'unlock_bits'
p281
S'0x3F'
p282
ssS'name'
p283
S'Arduino Nano w/ ATmega168'
p284
sS'upload'
p285
(dp286
S'speed'
p287
S'19200'
p288
sS'maximum_size'
p289
S'14336'
p290
sS'protocol'
p291
S'arduino'
p292
ssaa(lp293
S'mega2560'
p294
a(dp295
S'build'
p296
(dp297
S'core'
p298
S'arduino'
p299
sS'mcu'
p300
S'atmega2560'
p301
sS'f_cpu'
p302
S'16000000L'
p303
sS'variant'
p304
S'mega'
p305
ssS'bootloader'
p306
(dp307
S'extended_fuses'
p308
S'0xFD'
p309
sS'high_fuses'
p310
S'0xD8'
p311
sS'low_fuses'
p312
S'0xFF'
p313
sS'lock_bits'
p314
S'0x0F'
p315
sS'file'
p316
S'stk500boot_v2_mega2560.hex'
p317
sS'path'
p318
S'stk500v2'
p319
sS'unlock_bits'
p320
S'0x3F'
p321
ssS'name'
p322
S'Arduino Mega 2560 or Mega ADK'
p323
sS'upload'
p324
(dp325
S'speed'
p326
S'115200'
p327
sS'maximum_size'
p328
S'258048'
p329
sS'protocol'
p330
S'stk500v2'
p331
ssaa(lp332
S'mega'
p333
a(dp334
S'build'
p335
(dp336
S'core'
p337
S'arduino'
p338
sS'mcu'
p339
S'atmega1280'
p340
sS'f_cpu'
p341
S'16000000L'
p342
sS'variant'
p343
S'mega'
p344
ssS'bootloader'
p345
(dp346
S'extended_fuses'
p347
S'0xF5'
p348
sS'high_fuses'
p349
S'0xDA'
p350
sS'low_fuses'
p351
S'0xFF'
p352
sS'lock_bits'
p353
S'0x0F'
p354
sS'file'
p355
S'ATmegaBOOT_168_atmega1280.hex'
p356
sS'path'
p357
S'atmega'
p358
sS'unlock_bits'
p359
S'0x3F'
p360
ssS'name'
p361
S'Arduino Mega (ATmega1280)'
p362
sS'upload'
p363
(dp364
S'speed'
p365
S'57600'
p366
sS'maximum_size'
p367
S'126976'
p368
sS'protocol'
p369
S'arduino'
p370
ssaa(lp371
S'leonardo'
p372
a(dp373
S'build'
p374
(dp375
S'core'
p376
S'arduino'
p377
sS'f_cpu'
p378
S'16000000L'
p379
sS'vid'
p380
S'0x2341'
p381
sS'pid'
p382
S'0x8036'
p383
sS'variant'
p384
S'leonardo'
p385
sS'mcu'
p386
S'atmega32u4'
p387
ssS'bootloader'
p388
(dp389
S'extended_fuses'
p390
S'0xcb'
p391
sS'high_fuses'
p392
S'0xd8'
p393
sS'low_fuses'
p394
S'0xff'
p395
sS'lock_bits'
p396
S'0x2F'
p397
sS'file'
p398
S'Caterina-Leonardo.hex'
p399
sS'path'
p400
S'caterina'
p401
sS'unlock_bits'
p402
S'0x3F'
p403
ssS'name'
p404
S'Arduino Leonardo'
p405
sS'upload'
p406
(dp407
S'speed'
p408
S'57600'
p409
sS'maximum_size'
p410
S'28672'
p411
sS'protocol'
p412
S'avr109'
p413
sS'disable_flushing'
p414
S'true'
p415
ssaa(lp416
S'mini328'
p417
a(dp418
S'build'
p419
(dp420
S'core'
p421
S'arduino'
p422
sS'mcu'
p423
S'atmega328p'
p424
sS'f_cpu'
p425
S'16000000L'
p426
sS'variant'
p427
S'eightanaloginputs'
p428
ssS'bootloader'
p429
(dp430
S'extended_fuses'
p431
S'0x05'
p432
sS'high_fuses'
p433
S'0xd8'
p434
sS'low_fuses'
p435
S'0xff'
p436
sS'lock_bits'
p437
S'0x0F'
p438
sS'file'
p439
S'optiboot_atmega328-Mini.hex'
p440
sS'path'
p441
S'optiboot'
p442
sS'unlock_bits'
p443
S'0x3F'
p444
ssS'name'
p445
S'Arduino Mini w/ ATmega328'
p446
sS'upload'
p447
(dp448
S'speed'
p449
S'115200'
p450
sS'maximum_size'
p451
S'28672'
p452
sS'protocol'
p453
S'arduino'
p454
ssaa(lp455
S'mini'
p456
a(dp457
S'build'
p458
(dp459
S'core'
p460
S'arduino'
p461
sS'mcu'
p462
S'atmega168'
p463
sS'f_cpu'
p464
S'16000000L'
p465
sS'variant'
p466
S'eightanaloginputs'
p467
ssS'bootloader'
p468
(dp469
S'extended_fuses'
p470
S'0x00'
p471
sS'high_fuses'
p472
S'0xdd'
p473
sS'low_fuses'
p474
S'0xff'
p475
sS'lock_bits'
p476
S'0x0F'
p477
sS'file'
p478
S'ATmegaBOOT_168_ng.hex'
p479
sS'path'
p480
S'atmega'
p481
sS'unlock_bits'
p482
S'0x3F'
p483
ssS'name'
p484
S'Arduino Mini w/ ATmega168'
p485
sS'upload'
p486
(dp487
S'speed'
p488
S'19200'
p489
sS'maximum_size'
p490
S'14336'
p491
sS'protocol'
p492
S'arduino'
p493
ssaa(lp494
S'ethernet'
p495
a(dp496
S'build'
p497
(dp498
S'f_cpu'
p499
S'16000000L'
p500
sS'mcu'
p501
S'atmega328p'
p502
sS'variant'
p503
S'standard'
p504
sS'core'
p505
S'arduino'
p506
ssS'bootloader'
p507
(dp508
S'extended_fuses'
p509
S'0x05'
p510
sS'high_fuses'
p511
S'0xde'
p512
sS'low_fuses'
p513
S'0xff'
p514
sS'lock_bits'
p515
S'0x0F'
p516
sS'file'
p517
S'optiboot_atmega328.hex'
p518
sS'path'
p519
S'optiboot'
p520
sS'unlock_bits'
p521
S'0x3F'
p522
ssS'name'
p523
S'Arduino Ethernet'
p524
sS'upload'
p525
(dp526
S'speed'
p527
S'115200'
p528
sS'maximum_size'
p529
S'32256'
p530
sS'protocol'
p531
S'arduino'
p532
ssaa(lp533
S'fio'
p534
a(dp535
S'build'
p536
(dp537
S'core'
p538
S'arduino'
p539
sS'mcu'
p540
S'atmega328p'
p541
sS'f_cpu'
p542
S'8000000L'
p543
sS'variant'
p544
S'eightanaloginputs'
p545
ssS'bootloader'
p546
(dp547
S'extended_fuses'
p548
S'0x05'
p549
sS'high_fuses'
p550
S'0xDA'
p551
sS'low_fuses'
p552
S'0xFF'
p553
sS'lock_bits'
p554
S'0x0F'
p555
sS'file'
p556
S'ATmegaBOOT_168_atmega328_pro_8MHz.hex'
p557
sS'path'
p558
S'arduino:atmega'
p559
sS'unlock_bits'
p560
S'0x3F'
p561
ssS'name'
p562
S'Arduino Fio'
p563
sS'upload'
p564
(dp565
S'speed'
p566
S'57600'
p567
sS'maximum_size'
p568
S'30720'
p569
sS'protocol'
p570
S'arduino'
p571
ssaa(lp572
S'bt328'
p573
a(dp574
S'build'
p575
(dp576
S'core'
p577
S'arduino'
p578
sS'mcu'
p579
S'atmega328p'
p580
sS'f_cpu'
p581
S'16000000L'
p582
sS'variant'
p583
S'eightanaloginputs'
p584
ssS'bootloader'
p585
(dp586
S'extended_fuses'
p587
S'0x05'
p588
sS'high_fuses'
p589
S'0xd8'
p590
sS'low_fuses'
p591
S'0xff'
p592
sS'lock_bits'
p593
S'0x0F'
p594
sS'file'
p595
S'ATmegaBOOT_168_atmega328_bt.hex'
p596
sS'path'
p597
S'bt'
p598
sS'unlock_bits'
p599
S'0x3F'
p600
ssS'name'
p601
S'Arduino BT w/ ATmega328'
p602
sS'upload'
p603
(dp604
S'speed'
p605
S'19200'
p606
sS'maximum_size'
p607
S'28672'
p608
sS'protocol'
p609
S'arduino'
p610
sS'disable_flushing'
p611
S'true'
p612
ssaa(lp613
S'bt'
p614
a(dp615
S'build'
p616
(dp617
S'core'
p618
S'arduino'
p619
sS'mcu'
p620
S'atmega168'
p621
sS'f_cpu'
p622
S'16000000L'
p623
sS'variant'
p624
S'eightanaloginputs'
p625
ssS'bootloader'
p626
(dp627
S'extended_fuses'
p628
S'0x00'
p629
sS'high_fuses'
p630
S'0xdd'
p631
sS'low_fuses'
p632
S'0xff'
p633
sS'lock_bits'
p634
S'0x0F'
p635
sS'file'
p636
S'ATmegaBOOT_168.hex'
p637
sS'path'
p638
S'bt'
p639
sS'unlock_bits'
p640
S'0x3F'
p641
ssS'name'
p642
S'Arduino BT w/ ATmega168'
p643
sS'upload'
p644
(dp645
S'speed'
p646
S'19200'
p647
sS'maximum_size'
p648
S'14336'
p649
sS'protocol'
p650
S'arduino'
p651
sS'disable_flushing'
p652
S'true'
p653
ssaa(lp654
S'lilypad328'
p655
a(dp656
S'build'
p657
(dp658
S'core'
p659
S'arduino'
p660
sS'mcu'
p661
S'atmega328p'
p662
sS'f_cpu'
p663
S'8000000L'
p664
sS'variant'
p665
S'standard'
p666
ssS'bootloader'
p667
(dp668
S'extended_fuses'
p669
S'0x05'
p670
sS'high_fuses'
p671
S'0xDA'
p672
sS'low_fuses'
p673
S'0xFF'
p674
sS'lock_bits'
p675
S'0x0F'
p676
sS'file'
p677
S'ATmegaBOOT_168_atmega328_pro_8MHz.hex'
p678
sS'path'
p679
S'atmega'
p680
sS'unlock_bits'
p681
S'0x3F'
p682
ssS'name'
p683
S'LilyPad Arduino w/ ATmega328'
p684
sS'upload'
p685
(dp686
S'speed'
p687
S'57600'
p688
sS'maximum_size'
p689
S'30720'
p690
sS'protocol'
p691
S'arduino'
p692
ssaa(lp693
S'lilypad'
p694
a(dp695
S'build'
p696
(dp697
S'core'
p698
S'arduino'
p699
sS'mcu'
p700
S'atmega168'
p701
sS'f_cpu'
p702
S'8000000L'
p703
sS'variant'
p704
S'standard'
p705
ssS'bootloader'
p706
(dp707
S'extended_fuses'
p708
S'0x00'
p709
sS'high_fuses'
p710
S'0xdd'
p711
sS'low_fuses'
p712
S'0xe2'
p713
sS'lock_bits'
p714
S'0x0F'
p715
sS'file'
p716
S'LilyPadBOOT_168.hex'
p717
sS'path'
p718
S'lilypad'
p719
sS'unlock_bits'
p720
S'0x3F'
p721
ssS'name'
p722
S'LilyPad Arduino w/ ATmega168'
p723
sS'upload'
p724
(dp725
S'speed'
p726
S'19200'
p727
sS'maximum_size'
p728
S'14336'
p729
sS'protocol'
p730
S'arduino'
p731
ssaa(lp732
S'pro5v328'
p733
a(dp734
S'build'
p735
(dp736
S'core'
p737
S'arduino'
p738
sS'mcu'
p739
S'atmega328p'
p740
sS'f_cpu'
p741
S'16000000L'
p742
sS'variant'
p743
S'standard'
p744
ssS'bootloader'
p745
(dp746
S'extended_fuses'
p747
S'0x05'
p748
sS'high_fuses'
p749
S'0xDA'
p750
sS'low_fuses'
p751
S'0xFF'
p752
sS'lock_bits'
p753
S'0x0F'
p754
sS'file'
p755
S'ATmegaBOOT_168_atmega328.hex'
p756
sS'path'
p757
S'atmega'
p758
sS'unlock_bits'
p759
S'0x3F'
p760
ssS'name'
p761
S'Arduino Pro or Pro Mini (5V, 16 MHz) w/ ATmega328'
p762
sS'upload'
p763
(dp764
S'speed'
p765
S'57600'
p766
sS'maximum_size'
p767
S'30720'
p768
sS'protocol'
p769
S'arduino'
p770
ssaa(lp771
S'pro5v'
p772
a(dp773
S'build'
p774
(dp775
S'core'
p776
S'arduino'
p777
sS'mcu'
p778
S'atmega168'
p779
sS'f_cpu'
p780
S'16000000L'
p781
sS'variant'
p782
S'standard'
p783
ssS'bootloader'
p784
(dp785
S'extended_fuses'
p786
S'0x00'
p787
sS'high_fuses'
p788
S'0xdd'
p789
sS'low_fuses'
p790
S'0xff'
p791
sS'lock_bits'
p792
S'0x0F'
p793
sS'file'
p794
S'ATmegaBOOT_168_diecimila.hex'
p795
sS'path'
p796
S'atmega'
p797
sS'unlock_bits'
p798
S'0x3F'
p799
ssS'name'
p800
S'Arduino Pro or Pro Mini (5V, 16 MHz) w/ ATmega168'
p801
sS'upload'
p802
(dp803
S'speed'
p804
S'19200'
p805
sS'maximum_size'
p806
S'14336'
p807
sS'protocol'
p808
S'arduino'
p809
ssaa(lp810
S'pro328'
p811
a(dp812
S'build'
p813
(dp814
S'core'
p815
S'arduino'
p816
sS'mcu'
p817
S'atmega328p'
p818
sS'f_cpu'
p819
S'8000000L'
p820
sS'variant'
p821
S'standard'
p822
ssS'bootloader'
p823
(dp824
S'extended_fuses'
p825
S'0x05'
p826
sS'high_fuses'
p827
S'0xDA'
p828
sS'low_fuses'
p829
S'0xFF'
p830
sS'lock_bits'
p831
S'0x0F'
p832
sS'file'
p833
S'ATmegaBOOT_168_atmega328_pro_8MHz.hex'
p834
sS'path'
p835
S'atmega'
p836
sS'unlock_bits'
p837
S'0x3F'
p838
ssS'name'
p839
S'Arduino Pro or Pro Mini (3.3V, 8 MHz) w/ ATmega328'
p840
sS'upload'
p841
(dp842
S'speed'
p843
S'57600'
p844
sS'maximum_size'
p845
S'30720'
p846
sS'protocol'
p847
S'arduino'
p848
ssaa(lp849
S'pro'
p850
a(dp851
S'build'
p852
(dp853
S'core'
p854
S'arduino'
p855
sS'mcu'
p856
S'atmega168'
p857
sS'f_cpu'
p858
S'8000000L'
p859
sS'variant'
p860
S'standard'
p861
ssS'bootloader'
p862
(dp863
S'extended_fuses'
p864
S'0x00'
p865
sS'high_fuses'
p866
S'0xdd'
p867
sS'low_fuses'
p868
S'0xc6'
p869
sS'lock_bits'
p870
S'0x0F'
p871
sS'file'
p872
S'ATmegaBOOT_168_pro_8MHz.hex'
p873
sS'path'
p874
S'atmega'
p875
sS'unlock_bits'
p876
S'0x3F'
p877
ssS'name'
p878
S'Arduino Pro or Pro Mini (3.3V, 8 MHz) w/ ATmega168'
p879
sS'upload'
p880
(dp881
S'speed'
p882
S'19200'
p883
sS'maximum_size'
p884
S'14336'
p885
sS'protocol'
p886
S'arduino'
p887
ssaa(lp888
S'atmega168'
p889
a(dp890
S'build'
p891
(dp892
S'core'
p893
S'arduino'
p894
sS'mcu'
p895
S'atmega168'
p896
sS'f_cpu'
p897
S'16000000L'
p898
sS'variant'
p899
S'standard'
p900
ssS'bootloader'
p901
(dp902
S'extended_fuses'
p903
S'0x00'
p904
sS'high_fuses'
p905
S'0xdd'
p906
sS'low_fuses'
p907
S'0xff'
p908
sS'lock_bits'
p909
S'0x0F'
p910
sS'file'
p911
S'ATmegaBOOT_168_ng.hex'
p912
sS'path'
p913
S'atmega'
p914
sS'unlock_bits'
p915
S'0x3F'
p916
ssS'name'
p917
S'Arduino NG or older w/ ATmega168'
p918
sS'upload'
p919
(dp920
S'speed'
p921
S'19200'
p922
sS'maximum_size'
p923
S'14336'
p924
sS'protocol'
p925
S'arduino'
p926
ssaa(lp927
S'atmega8'
p928
a(dp929
S'build'
p930
(dp931
S'core'
p932
S'arduino'
p933
sS'mcu'
p934
S'atmega8'
p935
sS'f_cpu'
p936
S'16000000L'
p937
sS'variant'
p938
S'standard'
p939
ssS'bootloader'
p940
(dp941
S'high_fuses'
p942
S'0xca'
p943
sS'low_fuses'
p944
S'0xdf'
p945
sS'lock_bits'
p946
S'0x0F'
p947
sS'file'
p948
S'ATmegaBOOT.hex'
p949
sS'path'
p950
S'atmega8'
p951
sS'unlock_bits'
p952
S'0x3F'
p953
ssS'name'
p954
S'Arduino NG or older w/ ATmega8'
p955
sS'upload'
p956
(dp957
S'speed'
p958
S'19200'
p959
sS'maximum_size'
p960
S'7168'
p961
sS'protocol'
p962
S'arduino'
p963
ssaatp964
Rp965
(dp966
S'default'
p967
S'uno'
p968
sbtp969
a(S'cxx'
p970
S'/usr/bin/avr-g++'
p971
tp972
a.