(lp0
(S'elfflags'
p1
ccopy_reg
_reconstructor
p2
(cino.utils
SpaceList
p3
c__builtin__
list
p4
(lp5
S'-Os'
p6
aS'-Wl,--gc-sections'
p7
aS'-mmcu=atmega328p'
p8
atp9
Rp10
tp11
a(S'version.txt'
p12
S'/usr/share/arduino/lib/version.txt'
p13
tp14
a(S'cc'
p15
S'/usr/bin/avr-gcc'
p16
tp17
a(S'cflags'
p18
g2
(g3
g4
(lp19
g8
aS'-ffunction-sections'
p20
aS'-fdata-sections'
p21
aS'-g'
p22
ag6
aS'-w'
p23
aS'-DF_CPU=16000000L'
p24
aS'-DARDUINO=100'
p25
aS'-I/usr/share/arduino/hardware/arduino/avr/cores/arduino'
p26
aS'-I/usr/share/arduino/hardware/arduino/avr/variants/standard'
p27
atp28
Rp29
tp30
a(S'build_dir'
p31
S'.build/uno'
p32
tp33
a(S'arduino_core_dir'
p34
S'/usr/share/arduino/hardware/arduino/avr/cores/arduino'
p35
tp36
a(S'boards.txt'
p37
S'/usr/share/arduino/hardware/arduino/avr/boards.txt'
p38
tp39
a(S'cxxflags'
p40
g2
(g3
g4
(lp41
S'-fno-exceptions'
p42
atp43
Rp44
tp45
a(S'arduino_variants_dir'
p46
S'/usr/share/arduino/hardware/arduino/avr/variants'
p47
tp48
a(S'ar'
p49
S'/usr/bin/avr-ar'
p50
tp51
a(S'names'
p52
(dp53
S'cpp'
p54
S'%s.cpp'
p55
sS'obj'
p56
S'%s.o'
p57
sS'deps'
p58
S'%s.d'
p59
sS'lib'
p60
S'lib%s.a'
p61
stp62
a(S'deps'
p63
g2
(g3
g4
(lp64
tp65
Rp66
tp67
a(S'arduino_libraries_dir'
p68
S'/usr/share/arduino/libraries'
p69
tp70
a(S'arduino_lib_version'
p71
g2
(cino.environment
Version
p72
c__builtin__
tuple
p73
(I1
I0
tp74
tp75
Rp76
tp77
a(S'objcopy'
p78
S'/usr/bin/avr-objcopy'
p79
tp80
a(S'board_models'
p81
cino.environment
BoardModels
p82
((lp83
(lp84
S'uno'
p85
a(dp86
S'build'
p87
(dp88
S'core'
p89
S'arduino'
p90
sS'mcu'
p91
S'atmega328p'
p92
sS'f_cpu'
p93
S'16000000L'
p94
sS'variant'
p95
S'standard'
p96
ssS'bootloader'
p97
(dp98
S'extended_fuses'
p99
S'0x05'
p100
sS'high_fuses'
p101
S'0xde'
p102
sS'low_fuses'
p103
S'0xff'
p104
sS'lock_bits'
p105
S'0x0F'
p106
sS'file'
p107
S'optiboot_atmega328.hex'
p108
sS'path'
p109
S'optiboot'
p110
sS'unlock_bits'
p111
S'0x3F'
p112
ssS'name'
p113
S'Arduino Uno'
p114
sS'upload'
p115
(dp116
S'speed'
p117
S'115200'
p118
sS'maximum_size'
p119
S'32256'
p120
sS'protocol'
p121
S'arduino'
p122
ssaa(lp123
S'atmega328'
p124
a(dp125
S'build'
p126
(dp127
S'core'
p128
S'arduino'
p129
sS'mcu'
p130
S'atmega328p'
p131
sS'f_cpu'
p132
S'16000000L'
p133
sS'variant'
p134
S'standard'
p135
ssS'bootloader'
p136
(dp137
S'extended_fuses'
p138
S'0x05'
p139
sS'high_fuses'
p140
S'0xDA'
p141
sS'low_fuses'
p142
S'0xFF'
p143
sS'lock_bits'
p144
S'0x0F'
p145
sS'file'
p146
S'ATmegaBOOT_168_atmega328.hex'
p147
sS'path'
p148
S'atmega'
p149
sS'unlock_bits'
p150
S'0x3F'
p151
ssS'name'
p152
S'Arduino Duemilanove w/ ATmega328'
p153
sS'upload'
p154
(dp155
S'speed'
p156
S'57600'
p157
sS'maximum_size'
p158
S'30720'
p159
sS'protocol'
p160
S'arduino'
p161
ssaa(lp162
S'diecimila'
p163
a(dp164
S'build'
p165
(dp166
S'core'
p167
S'arduino'
p168
sS'mcu'
p169
S'atmega168'
p170
sS'f_cpu'
p171
S'16000000L'
p172
sS'variant'
p173
S'standard'
p174
ssS'bootloader'
p175
(dp176
S'extended_fuses'
p177
S'0x00'
p178
sS'high_fuses'
p179
S'0xdd'
p180
sS'low_fuses'
p181
S'0xff'
p182
sS'lock_bits'
p183
S'0x0F'
p184
sS'file'
p185
S'ATmegaBOOT_168_diecimila.hex'
p186
sS'path'
p187
S'atmega'
p188
sS'unlock_bits'
p189
S'0x3F'
p190
ssS'name'
p191
S'Arduino Diecimila or Duemilanove w/ ATmega168'
p192
sS'upload'
p193
(dp194
S'speed'
p195
S'19200'
p196
sS'maximum_size'
p197
S'14336'
p198
sS'protocol'
p199
S'arduino'
p200
ssaa(lp201
S'nano328'
p202
a(dp203
S'build'
p204
(dp205
S'core'
p206
S'arduino'
p207
sS'mcu'
p208
S'atmega328p'
p209
sS'f_cpu'
p210
S'16000000L'
p211
sS'variant'
p212
S'eightanaloginputs'
p213
ssS'bootloader'
p214
(dp215
S'extended_fuses'
p216
S'0x05'
p217
sS'high_fuses'
p218
S'0xDA'
p219
sS'low_fuses'
p220
S'0xFF'
p221
sS'lock_bits'
p222
S'0x0F'
p223
sS'file'
p224
S'ATmegaBOOT_168_atmega328.hex'
p225
sS'path'
p226
S'atmega'
p227
sS'unlock_bits'
p228
S'0x3F'
p229
ssS'name'
p230
S'Arduino Nano w/ ATmega328'
p231
sS'upload'
p232
(dp233
S'speed'
p234
S'57600'
p235
sS'maximum_size'
p236
S'30720'
p237
sS'protocol'
p238
S'arduino'
p239
ssaa(lp240
S'nano'
p241
a(dp242
S'build'
p243
(dp244
S'core'
p245
S'arduino'
p246
sS'mcu'
p247
S'atmega168'
p248
sS'f_cpu'
p249
S'16000000L'
p250
sS'variant'
p251
S'eightanaloginputs'
p252
ssS'bootloader'
p253
(dp254
S'extended_fuses'
p255
S'0x00'
p256
sS'high_fuses'
p257
S'0xdd'
p258
sS'low_fuses'
p259
S'0xff'
p260
sS'lock_bits'
p261
S'0x0F'
p262
sS'file'
p263
S'ATmegaBOOT_168_diecimila.hex'
p264
sS'path'
p265
S'atmega'
p266
sS'unlock_bits'
p267
S'0x3F'
p268
ssS'name'
p269
S'Arduino Nano w/ ATmega168'
p270
sS'upload'
p271
(dp272
S'speed'
p273
S'19200'
p274
sS'maximum_size'
p275
S'14336'
p276
sS'protocol'
p277
S'arduino'
p278
ssaa(lp279
S'mega2560'
p280
a(dp281
S'build'
p282
(dp283
S'core'
p284
S'arduino'
p285
sS'mcu'
p286
S'atmega2560'
p287
sS'f_cpu'
p288
S'16000000L'
p289
sS'variant'
p290
S'mega'
p291
ssS'bootloader'
p292
(dp293
S'extended_fuses'
p294
S'0xFD'
p295
sS'high_fuses'
p296
S'0xD8'
p297
sS'low_fuses'
p298
S'0xFF'
p299
sS'lock_bits'
p300
S'0x0F'
p301
sS'file'
p302
S'stk500boot_v2_mega2560.hex'
p303
sS'path'
p304
S'stk500v2'
p305
sS'unlock_bits'
p306
S'0x3F'
p307
ssS'name'
p308
S'Arduino Mega 2560 or Mega ADK'
p309
sS'upload'
p310
(dp311
S'speed'
p312
S'115200'
p313
sS'maximum_size'
p314
S'258048'
p315
sS'protocol'
p316
S'stk500v2'
p317
ssaa(lp318
S'mega'
p319
a(dp320
S'build'
p321
(dp322
S'core'
p323
S'arduino'
p324
sS'mcu'
p325
S'atmega1280'
p326
sS'f_cpu'
p327
S'16000000L'
p328
sS'variant'
p329
S'mega'
p330
ssS'bootloader'
p331
(dp332
S'extended_fuses'
p333
S'0xF5'
p334
sS'high_fuses'
p335
S'0xDA'
p336
sS'low_fuses'
p337
S'0xFF'
p338
sS'lock_bits'
p339
S'0x0F'
p340
sS'file'
p341
S'ATmegaBOOT_168_atmega1280.hex'
p342
sS'path'
p343
S'atmega'
p344
sS'unlock_bits'
p345
S'0x3F'
p346
ssS'name'
p347
S'Arduino Mega (ATmega1280)'
p348
sS'upload'
p349
(dp350
S'speed'
p351
S'57600'
p352
sS'maximum_size'
p353
S'126976'
p354
sS'protocol'
p355
S'arduino'
p356
ssaa(lp357
S'leonardo'
p358
a(dp359
S'build'
p360
(dp361
S'core'
p362
S'arduino'
p363
sS'f_cpu'
p364
S'16000000L'
p365
sS'vid'
p366
S'0x2341'
p367
sS'pid'
p368
S'0x8036'
p369
sS'variant'
p370
S'leonardo'
p371
sS'mcu'
p372
S'atmega32u4'
p373
ssS'bootloader'
p374
(dp375
S'extended_fuses'
p376
S'0xcb'
p377
sS'high_fuses'
p378
S'0xd8'
p379
sS'low_fuses'
p380
S'0xff'
p381
sS'lock_bits'
p382
S'0x2F'
p383
sS'file'
p384
S'Caterina-Leonardo.hex'
p385
sS'path'
p386
S'caterina'
p387
sS'unlock_bits'
p388
S'0x3F'
p389
ssS'name'
p390
S'Arduino Leonardo'
p391
sS'upload'
p392
(dp393
S'speed'
p394
S'57600'
p395
sS'maximum_size'
p396
S'28672'
p397
sS'protocol'
p398
S'avr109'
p399
sS'disable_flushing'
p400
S'true'
p401
ssaa(lp402
S'mini328'
p403
a(dp404
S'build'
p405
(dp406
S'core'
p407
S'arduino'
p408
sS'mcu'
p409
S'atmega328p'
p410
sS'f_cpu'
p411
S'16000000L'
p412
sS'variant'
p413
S'eightanaloginputs'
p414
ssS'bootloader'
p415
(dp416
S'extended_fuses'
p417
S'0x05'
p418
sS'high_fuses'
p419
S'0xd8'
p420
sS'low_fuses'
p421
S'0xff'
p422
sS'lock_bits'
p423
S'0x0F'
p424
sS'file'
p425
S'optiboot_atmega328-Mini.hex'
p426
sS'path'
p427
S'optiboot'
p428
sS'unlock_bits'
p429
S'0x3F'
p430
ssS'name'
p431
S'Arduino Mini w/ ATmega328'
p432
sS'upload'
p433
(dp434
S'speed'
p435
S'115200'
p436
sS'maximum_size'
p437
S'28672'
p438
sS'protocol'
p439
S'arduino'
p440
ssaa(lp441
S'mini'
p442
a(dp443
S'build'
p444
(dp445
S'core'
p446
S'arduino'
p447
sS'mcu'
p448
S'atmega168'
p449
sS'f_cpu'
p450
S'16000000L'
p451
sS'variant'
p452
S'eightanaloginputs'
p453
ssS'bootloader'
p454
(dp455
S'extended_fuses'
p456
S'0x00'
p457
sS'high_fuses'
p458
S'0xdd'
p459
sS'low_fuses'
p460
S'0xff'
p461
sS'lock_bits'
p462
S'0x0F'
p463
sS'file'
p464
S'ATmegaBOOT_168_ng.hex'
p465
sS'path'
p466
S'atmega'
p467
sS'unlock_bits'
p468
S'0x3F'
p469
ssS'name'
p470
S'Arduino Mini w/ ATmega168'
p471
sS'upload'
p472
(dp473
S'speed'
p474
S'19200'
p475
sS'maximum_size'
p476
S'14336'
p477
sS'protocol'
p478
S'arduino'
p479
ssaa(lp480
S'ethernet'
p481
a(dp482
S'build'
p483
(dp484
S'f_cpu'
p485
S'16000000L'
p486
sS'mcu'
p487
S'atmega328p'
p488
sS'variant'
p489
S'standard'
p490
sS'core'
p491
S'arduino'
p492
ssS'bootloader'
p493
(dp494
S'extended_fuses'
p495
S'0x05'
p496
sS'high_fuses'
p497
S'0xde'
p498
sS'low_fuses'
p499
S'0xff'
p500
sS'lock_bits'
p501
S'0x0F'
p502
sS'file'
p503
S'optiboot_atmega328.hex'
p504
sS'path'
p505
S'optiboot'
p506
sS'unlock_bits'
p507
S'0x3F'
p508
ssS'name'
p509
S'Arduino Ethernet'
p510
sS'upload'
p511
(dp512
S'speed'
p513
S'115200'
p514
sS'maximum_size'
p515
S'32256'
p516
sS'protocol'
p517
S'arduino'
p518
ssaa(lp519
S'fio'
p520
a(dp521
S'build'
p522
(dp523
S'core'
p524
S'arduino'
p525
sS'mcu'
p526
S'atmega328p'
p527
sS'f_cpu'
p528
S'8000000L'
p529
sS'variant'
p530
S'eightanaloginputs'
p531
ssS'bootloader'
p532
(dp533
S'extended_fuses'
p534
S'0x05'
p535
sS'high_fuses'
p536
S'0xDA'
p537
sS'low_fuses'
p538
S'0xFF'
p539
sS'lock_bits'
p540
S'0x0F'
p541
sS'file'
p542
S'ATmegaBOOT_168_atmega328_pro_8MHz.hex'
p543
sS'path'
p544
S'arduino:atmega'
p545
sS'unlock_bits'
p546
S'0x3F'
p547
ssS'name'
p548
S'Arduino Fio'
p549
sS'upload'
p550
(dp551
S'speed'
p552
S'57600'
p553
sS'maximum_size'
p554
S'30720'
p555
sS'protocol'
p556
S'arduino'
p557
ssaa(lp558
S'bt328'
p559
a(dp560
S'build'
p561
(dp562
S'core'
p563
S'arduino'
p564
sS'mcu'
p565
S'atmega328p'
p566
sS'f_cpu'
p567
S'16000000L'
p568
sS'variant'
p569
S'eightanaloginputs'
p570
ssS'bootloader'
p571
(dp572
S'extended_fuses'
p573
S'0x05'
p574
sS'high_fuses'
p575
S'0xd8'
p576
sS'low_fuses'
p577
S'0xff'
p578
sS'lock_bits'
p579
S'0x0F'
p580
sS'file'
p581
S'ATmegaBOOT_168_atmega328_bt.hex'
p582
sS'path'
p583
S'bt'
p584
sS'unlock_bits'
p585
S'0x3F'
p586
ssS'name'
p587
S'Arduino BT w/ ATmega328'
p588
sS'upload'
p589
(dp590
S'speed'
p591
S'19200'
p592
sS'maximum_size'
p593
S'28672'
p594
sS'protocol'
p595
S'arduino'
p596
sS'disable_flushing'
p597
S'true'
p598
ssaa(lp599
S'bt'
p600
a(dp601
S'build'
p602
(dp603
S'core'
p604
S'arduino'
p605
sS'mcu'
p606
S'atmega168'
p607
sS'f_cpu'
p608
S'16000000L'
p609
sS'variant'
p610
S'eightanaloginputs'
p611
ssS'bootloader'
p612
(dp613
S'extended_fuses'
p614
S'0x00'
p615
sS'high_fuses'
p616
S'0xdd'
p617
sS'low_fuses'
p618
S'0xff'
p619
sS'lock_bits'
p620
S'0x0F'
p621
sS'file'
p622
S'ATmegaBOOT_168.hex'
p623
sS'path'
p624
S'bt'
p625
sS'unlock_bits'
p626
S'0x3F'
p627
ssS'name'
p628
S'Arduino BT w/ ATmega168'
p629
sS'upload'
p630
(dp631
S'speed'
p632
S'19200'
p633
sS'maximum_size'
p634
S'14336'
p635
sS'protocol'
p636
S'arduino'
p637
sS'disable_flushing'
p638
S'true'
p639
ssaa(lp640
S'lilypad328'
p641
a(dp642
S'build'
p643
(dp644
S'core'
p645
S'arduino'
p646
sS'mcu'
p647
S'atmega328p'
p648
sS'f_cpu'
p649
S'8000000L'
p650
sS'variant'
p651
S'standard'
p652
ssS'bootloader'
p653
(dp654
S'extended_fuses'
p655
S'0x05'
p656
sS'high_fuses'
p657
S'0xDA'
p658
sS'low_fuses'
p659
S'0xFF'
p660
sS'lock_bits'
p661
S'0x0F'
p662
sS'file'
p663
S'ATmegaBOOT_168_atmega328_pro_8MHz.hex'
p664
sS'path'
p665
S'atmega'
p666
sS'unlock_bits'
p667
S'0x3F'
p668
ssS'name'
p669
S'LilyPad Arduino w/ ATmega328'
p670
sS'upload'
p671
(dp672
S'speed'
p673
S'57600'
p674
sS'maximum_size'
p675
S'30720'
p676
sS'protocol'
p677
S'arduino'
p678
ssaa(lp679
S'lilypad'
p680
a(dp681
S'build'
p682
(dp683
S'core'
p684
S'arduino'
p685
sS'mcu'
p686
S'atmega168'
p687
sS'f_cpu'
p688
S'8000000L'
p689
sS'variant'
p690
S'standard'
p691
ssS'bootloader'
p692
(dp693
S'extended_fuses'
p694
S'0x00'
p695
sS'high_fuses'
p696
S'0xdd'
p697
sS'low_fuses'
p698
S'0xe2'
p699
sS'lock_bits'
p700
S'0x0F'
p701
sS'file'
p702
S'LilyPadBOOT_168.hex'
p703
sS'path'
p704
S'lilypad'
p705
sS'unlock_bits'
p706
S'0x3F'
p707
ssS'name'
p708
S'LilyPad Arduino w/ ATmega168'
p709
sS'upload'
p710
(dp711
S'speed'
p712
S'19200'
p713
sS'maximum_size'
p714
S'14336'
p715
sS'protocol'
p716
S'arduino'
p717
ssaa(lp718
S'pro5v328'
p719
a(dp720
S'build'
p721
(dp722
S'core'
p723
S'arduino'
p724
sS'mcu'
p725
S'atmega328p'
p726
sS'f_cpu'
p727
S'16000000L'
p728
sS'variant'
p729
S'standard'
p730
ssS'bootloader'
p731
(dp732
S'extended_fuses'
p733
S'0x05'
p734
sS'high_fuses'
p735
S'0xDA'
p736
sS'low_fuses'
p737
S'0xFF'
p738
sS'lock_bits'
p739
S'0x0F'
p740
sS'file'
p741
S'ATmegaBOOT_168_atmega328.hex'
p742
sS'path'
p743
S'atmega'
p744
sS'unlock_bits'
p745
S'0x3F'
p746
ssS'name'
p747
S'Arduino Pro or Pro Mini (5V, 16 MHz) w/ ATmega328'
p748
sS'upload'
p749
(dp750
S'speed'
p751
S'57600'
p752
sS'maximum_size'
p753
S'30720'
p754
sS'protocol'
p755
S'arduino'
p756
ssaa(lp757
S'pro5v'
p758
a(dp759
S'build'
p760
(dp761
S'core'
p762
S'arduino'
p763
sS'mcu'
p764
S'atmega168'
p765
sS'f_cpu'
p766
S'16000000L'
p767
sS'variant'
p768
S'standard'
p769
ssS'bootloader'
p770
(dp771
S'extended_fuses'
p772
S'0x00'
p773
sS'high_fuses'
p774
S'0xdd'
p775
sS'low_fuses'
p776
S'0xff'
p777
sS'lock_bits'
p778
S'0x0F'
p779
sS'file'
p780
S'ATmegaBOOT_168_diecimila.hex'
p781
sS'path'
p782
S'atmega'
p783
sS'unlock_bits'
p784
S'0x3F'
p785
ssS'name'
p786
S'Arduino Pro or Pro Mini (5V, 16 MHz) w/ ATmega168'
p787
sS'upload'
p788
(dp789
S'speed'
p790
S'19200'
p791
sS'maximum_size'
p792
S'14336'
p793
sS'protocol'
p794
S'arduino'
p795
ssaa(lp796
S'pro328'
p797
a(dp798
S'build'
p799
(dp800
S'core'
p801
S'arduino'
p802
sS'mcu'
p803
S'atmega328p'
p804
sS'f_cpu'
p805
S'8000000L'
p806
sS'variant'
p807
S'standard'
p808
ssS'bootloader'
p809
(dp810
S'extended_fuses'
p811
S'0x05'
p812
sS'high_fuses'
p813
S'0xDA'
p814
sS'low_fuses'
p815
S'0xFF'
p816
sS'lock_bits'
p817
S'0x0F'
p818
sS'file'
p819
S'ATmegaBOOT_168_atmega328_pro_8MHz.hex'
p820
sS'path'
p821
S'atmega'
p822
sS'unlock_bits'
p823
S'0x3F'
p824
ssS'name'
p825
S'Arduino Pro or Pro Mini (3.3V, 8 MHz) w/ ATmega328'
p826
sS'upload'
p827
(dp828
S'speed'
p829
S'57600'
p830
sS'maximum_size'
p831
S'30720'
p832
sS'protocol'
p833
S'arduino'
p834
ssaa(lp835
S'pro'
p836
a(dp837
S'build'
p838
(dp839
S'core'
p840
S'arduino'
p841
sS'mcu'
p842
S'atmega168'
p843
sS'f_cpu'
p844
S'8000000L'
p845
sS'variant'
p846
S'standard'
p847
ssS'bootloader'
p848
(dp849
S'extended_fuses'
p850
S'0x00'
p851
sS'high_fuses'
p852
S'0xdd'
p853
sS'low_fuses'
p854
S'0xc6'
p855
sS'lock_bits'
p856
S'0x0F'
p857
sS'file'
p858
S'ATmegaBOOT_168_pro_8MHz.hex'
p859
sS'path'
p860
S'atmega'
p861
sS'unlock_bits'
p862
S'0x3F'
p863
ssS'name'
p864
S'Arduino Pro or Pro Mini (3.3V, 8 MHz) w/ ATmega168'
p865
sS'upload'
p866
(dp867
S'speed'
p868
S'19200'
p869
sS'maximum_size'
p870
S'14336'
p871
sS'protocol'
p872
S'arduino'
p873
ssaa(lp874
S'atmega168'
p875
a(dp876
S'build'
p877
(dp878
S'core'
p879
S'arduino'
p880
sS'mcu'
p881
S'atmega168'
p882
sS'f_cpu'
p883
S'16000000L'
p884
sS'variant'
p885
S'standard'
p886
ssS'bootloader'
p887
(dp888
S'extended_fuses'
p889
S'0x00'
p890
sS'high_fuses'
p891
S'0xdd'
p892
sS'low_fuses'
p893
S'0xff'
p894
sS'lock_bits'
p895
S'0x0F'
p896
sS'file'
p897
S'ATmegaBOOT_168_ng.hex'
p898
sS'path'
p899
S'atmega'
p900
sS'unlock_bits'
p901
S'0x3F'
p902
ssS'name'
p903
S'Arduino NG or older w/ ATmega168'
p904
sS'upload'
p905
(dp906
S'speed'
p907
S'19200'
p908
sS'maximum_size'
p909
S'14336'
p910
sS'protocol'
p911
S'arduino'
p912
ssaa(lp913
S'atmega8'
p914
a(dp915
S'build'
p916
(dp917
S'core'
p918
S'arduino'
p919
sS'mcu'
p920
S'atmega8'
p921
sS'f_cpu'
p922
S'16000000L'
p923
sS'variant'
p924
S'standard'
p925
ssS'bootloader'
p926
(dp927
S'high_fuses'
p928
S'0xca'
p929
sS'low_fuses'
p930
S'0xdf'
p931
sS'lock_bits'
p932
S'0x0F'
p933
sS'file'
p934
S'ATmegaBOOT.hex'
p935
sS'path'
p936
S'atmega8'
p937
sS'unlock_bits'
p938
S'0x3F'
p939
ssS'name'
p940
S'Arduino NG or older w/ ATmega8'
p941
sS'upload'
p942
(dp943
S'speed'
p944
S'19200'
p945
sS'maximum_size'
p946
S'7168'
p947
sS'protocol'
p948
S'arduino'
p949
ssaatp950
Rp951
(dp952
S'default'
p953
S'uno'
p954
sbtp955
a(S'cxx'
p956
S'/usr/bin/avr-g++'
p957
tp958
a.